/*
 * Intel ACPI Component Architecture
 * AML/ASL+ Disassembler version 20190329 (64-bit version)
 * Copyright (c) 2000 - 2019 Intel Corporation
 * 
 * Disassembly of msdm.dat, Tue Apr  2 02:44:42 2019
 *
 * ACPI Data Table [MSDM]
 *
 * Format: [HexOffset DecimalOffset ByteLength]  FieldName : FieldValue
 */

[000h 0000   4]                    Signature : "MSDM"    [Microsoft Data Management table]
[004h 0004   4]                 Table Length : 00000055
[008h 0008   1]                     Revision : 03
[009h 0009   1]                     Checksum : 55
[00Ah 0010   6]                       Oem ID : "ALASKA"
[010h 0016   8]                 Oem Table ID : "A M I "
[018h 0024   4]                 Oem Revision : 01072009
[01Ch 0028   4]              Asl Compiler ID : "AMI "
[020h 0032   4]        Asl Compiler Revision : 00010013

[024h 0036  49] Software Licensing Structure : \
    01 00 00 00 00 00 00 00 01 00 00 00 00 00 00 00 \
    1D 00 00 00 39 4A 4E 58 36 2D 44 58 52 4B 37 2D \
    59 43 48 38 43 2D 59 48 43 4B 46 2D 57 46 46 57 \
    52 

Raw Table Data: Length 85 (0x55)

    0000: 4D 53 44 4D 55 00 00 00 03 55 41 4C 41 53 4B 41  // MSDMU....UALASKA
    0010: 41 20 4D 20 49 20 00 00 09 20 07 01 41 4D 49 20  // A M I ... ..AMI 
    0020: 13 00 01 00 01 00 00 00 00 00 00 00 01 00 00 00  // ................
    0030: 00 00 00 00 1D 00 00 00 39 4A 4E 58 36 2D 44 58  // ........9JNX6-DX
    0040: 52 4B 37 2D 59 43 48 38 43 2D 59 48 43 4B 46 2D  // RK7-YCH8C-YHCKF-
    0050: 57 46 46 57 52                                   // WFFWR
